target datalayout = "e-m:e-p270:32:32-p271:32:32-p272:64:64-i64:64-i128:128-f80:128-n8:16:32:64-S128"
target triple = "x86_64-pc-linux-gnu"

%class.ReservedSpace = type <{ ptr, i64, i64, i64, i64, i8, [3 x i8], i32, i8, [7 x i8] }>
%class.PSOldGen = type { ptr, ptr, %class.ObjectStartArray, ptr, ptr, ptr, i64, i64 }
%class.ObjectStartArray = type { [8 x i8], %class.PSVirtualSpace, ptr }
%class.PSVirtualSpace = type <{ ptr, i64, ptr, ptr, ptr, ptr, i8, [7 x i8] }>

@_ZTV8PSOldGen = hidden unnamed_addr constant { [3 x ptr] } { [3 x ptr] [ptr null, ptr null, ptr @_ZNK8PSOldGen8print_onEP12outputStream] }, align 8
@GenAlignment = external global i64, align 8

; Function Attrs: mustprogress nounwind uwtable
define linkonce_odr hidden void @_ZN16ObjectStartArrayC2Ev(ptr noundef nonnull align 8 dereferenceable(72) %0) unnamed_addr #1 comdat align 2 {
  %2 = alloca ptr, align 8
  store ptr %0, ptr %2, align 8
  %3 = load ptr, ptr %2, align 8
  %4 = getelementptr inbounds %class.ObjectStartArray, ptr %3, i32 0, i32 1
  call void @_ZN14PSVirtualSpaceC1Ev(ptr noundef nonnull align 8 dereferenceable(49) %4)
  ret void
}

; Function Attrs: mustprogress nounwind uwtable
define hidden void @_ZN8PSOldGenC2E13ReservedSpacemmmPKci(ptr noundef nonnull align 8 dereferenceable(128) %0, ptr noundef byval(%class.ReservedSpace) align 8 %1, i64 noundef %2, i64 noundef %3, i64 noundef %4, ptr noundef %5, i32 noundef %6) unnamed_addr #1 align 2 {
  %8 = alloca ptr, align 8
  %9 = alloca i64, align 8
  %10 = alloca i64, align 8
  %11 = alloca i64, align 8
  %12 = alloca ptr, align 8
  %13 = alloca i32, align 4
  %14 = alloca %class.ReservedSpace, align 8
  store ptr %0, ptr %8, align 8
  store i64 %2, ptr %9, align 8
  store i64 %3, ptr %10, align 8
  store i64 %4, ptr %11, align 8
  store ptr %5, ptr %12, align 8
  store i32 %6, ptr %13, align 4
  %15 = load ptr, ptr %8, align 8
  store ptr getelementptr inbounds inrange(-16, 8) ({ [3 x ptr] }, ptr @_ZTV8PSOldGen, i32 0, i32 0, i32 2), ptr %15, align 8
  %16 = getelementptr inbounds %class.PSOldGen, ptr %15, i32 0, i32 2
  call void @_ZN16ObjectStartArrayC2Ev(ptr noundef nonnull align 8 dereferenceable(72) %16)
  %17 = getelementptr inbounds %class.PSOldGen, ptr %15, i32 0, i32 6
  %18 = load i64, ptr %10, align 8
  store i64 %18, ptr %17, align 8
  %19 = getelementptr inbounds %class.PSOldGen, ptr %15, i32 0, i32 7
  %20 = load i64, ptr %11, align 8
  store i64 %20, ptr %19, align 8
  call void @llvm.memcpy.p0.p0.i64(ptr align 8 %14, ptr align 8 %1, i64 56, i1 false)
  %21 = load i64, ptr %9, align 8
  %22 = load i64, ptr @GenAlignment, align 8
  %23 = load ptr, ptr %12, align 8
  %24 = load i32, ptr %13, align 4
  call void @_ZN8PSOldGen10initializeE13ReservedSpacemmPKci(ptr noundef nonnull align 8 dereferenceable(128) %15, ptr noundef byval(%class.ReservedSpace) align 8 %14, i64 noundef %21, i64 noundef %22, ptr noundef %23, i32 noundef %24)
  ret void
}