; Function Attrs: mustprogress nounwind uwtable
define hidden void @_ZN8PSOldGenC2E13ReservedSpacemmmPKci(ptr noundef nonnull align 8 dereferenceable(128) %0, ptr nocapture noundef readonly byval(%class.ReservedSpace) align 8 %1, i64 noundef %2, i64 noundef %3, i64 noundef %4, ptr noundef %5, i32 noundef %6) unnamed_addr #0 align 2 {
  store ptr getelementptr inbounds inrange(-16, 8) (i8, ptr @_ZTV8PSOldGen, i64 16), ptr %0, align 8
  %8 = getelementptr inbounds i8, ptr %0, i64 24
  tail call void @_ZN14PSVirtualSpaceC1Ev(ptr noundef nonnull align 8 dereferenceable(49) %8) #7
  %9 = getelementptr inbounds i8, ptr %0, i64 112
  store i64 %3, ptr %9, align 8
  %10 = getelementptr inbounds i8, ptr %0, i64 120
  store i64 %4, ptr %10, align 8
  %11 = load i64, ptr @GenAlignment, align 8
  tail call void @_ZN8PSOldGen10initializeE13ReservedSpacemmPKci(ptr noundef nonnull align 8 dereferenceable(128) %0, ptr noundef nonnull byval(%class.ReservedSpace) align 8 %1, i64 noundef %2, i64 noundef %11, ptr noundef %5, i32 noundef %6)
  ret void
}